target datalayout = "e-m:e-p270:32:32-p271:32:32-p272:64:64-i64:64-i128:128-f80:128-n8:16:32:64-S128"
target triple = "x86_64-pc-linux-gnu"

%struct.scsistat_tap_data = type { i8, ptr, ptr, ptr }
%struct._scsi_task_data = type { i32, ptr, ptr }
%struct._itlq_nexus_t = type { i32, i32, i16, i16, i16, i16, i32, i32, i32, %struct.nstime_t, %struct.nstime_t, ptr }
%struct.nstime_t = type { i64, i32 }
%struct._itl_nexus_t = type { i8, ptr }
%struct._srt_data_t = type { ptr, ptr }
%struct._GArray = type { ptr, i32 }
%struct._srt_stat_table = type { ptr, ptr, ptr, i32, ptr, ptr, ptr }

; Function Attrs: nounwind uwtable
define internal i32 @scsistat_packet(ptr noundef %0, ptr noundef %1, ptr noundef %2, ptr noundef %3, i32 noundef %4) #0 {
  %6 = alloca i32, align 4
  %7 = alloca ptr, align 8
  %8 = alloca ptr, align 8
  %9 = alloca ptr, align 8
  %10 = alloca ptr, align 8
  %11 = alloca i32, align 4
  %12 = alloca i32, align 4
  %13 = alloca ptr, align 8
  %14 = alloca ptr, align 8
  %15 = alloca ptr, align 8
  %16 = alloca ptr, align 8
  store ptr %0, ptr %7, align 8
  store ptr %1, ptr %8, align 8
  store ptr %2, ptr %9, align 8
  store ptr %3, ptr %10, align 8
  store i32 %4, ptr %11, align 4
  store i32 0, ptr %12, align 4
  %17 = load ptr, ptr %7, align 8
  store ptr %17, ptr %14, align 8
  %18 = load ptr, ptr %10, align 8
  store ptr %18, ptr %15, align 8
  %19 = load ptr, ptr %14, align 8
  %20 = getelementptr inbounds %struct._srt_data_t, ptr %19, i32 0, i32 0
  %21 = load ptr, ptr %20, align 8
  %22 = getelementptr inbounds %struct._GArray, ptr %21, i32 0, i32 0
  %23 = load ptr, ptr %22, align 8
  %24 = load i32, ptr %12, align 4
  %25 = zext i32 %24 to i64
  %26 = getelementptr ptr, ptr %23, i64 %25
  %27 = load ptr, ptr %26, align 8
  store ptr %27, ptr %13, align 8
  %28 = load ptr, ptr %13, align 8
  %29 = getelementptr inbounds %struct._srt_stat_table, ptr %28, i32 0, i32 6
  %30 = load ptr, ptr %29, align 8
  store ptr %30, ptr %16, align 8
  %31 = load ptr, ptr %15, align 8
  %32 = getelementptr inbounds %struct._scsi_task_data, ptr %31, i32 0, i32 0
  %33 = load i32, ptr %32, align 8
  %34 = icmp ne i32 %33, 4
  br i1 %34, label %35, label %36

35:                                               ; preds = %5
  store i32 0, ptr %6, align 4
  br label %82

36:                                               ; preds = %5
  %37 = load ptr, ptr %15, align 8
  %38 = getelementptr inbounds %struct._scsi_task_data, ptr %37, i32 0, i32 2
  %39 = load ptr, ptr %38, align 8
  %40 = icmp ne ptr %39, null
  br i1 %40, label %41, label %54

41:                                               ; preds = %36
  %42 = load ptr, ptr %15, align 8
  %43 = getelementptr inbounds %struct._scsi_task_data, ptr %42, i32 0, i32 2
  %44 = load ptr, ptr %43, align 8
  %45 = getelementptr inbounds %struct._itl_nexus_t, ptr %44, i32 0, i32 0
  %46 = load i8, ptr %45, align 8
  %47 = zext i8 %46 to i32
  %48 = and i32 %47, 127
  %49 = load ptr, ptr %16, align 8
  %50 = getelementptr inbounds %struct.scsistat_tap_data, ptr %49, i32 0, i32 0
  %51 = load i8, ptr %50, align 8
  %52 = zext i8 %51 to i32
  %53 = icmp ne i32 %48, %52
  br i1 %53, label %54, label %55

54:                                               ; preds = %41, %36
  store i32 0, ptr %6, align 4
  br label %82

55:                                               ; preds = %41
  %56 = load ptr, ptr %15, align 8
  %57 = getelementptr inbounds %struct._scsi_task_data, ptr %56, i32 0, i32 1
  %58 = load ptr, ptr %57, align 8
  %59 = icmp ne ptr %58, null
  br i1 %59, label %60, label %68

60:                                               ; preds = %55
  %61 = load ptr, ptr %15, align 8
  %62 = getelementptr inbounds %struct._scsi_task_data, ptr %61, i32 0, i32 1
  %63 = load ptr, ptr %62, align 8
  %64 = getelementptr inbounds %struct._itlq_nexus_t, ptr %63, i32 0, i32 3
  %65 = load i16, ptr %64, align 2
  %66 = zext i16 %65 to i32
  %67 = icmp sgt i32 %66, 255
  br i1 %67, label %68, label %69

68:                                               ; preds = %60, %55
  store i32 0, ptr %6, align 4
  br label %82

69:                                               ; preds = %60
  %70 = load ptr, ptr %13, align 8
  %71 = load ptr, ptr %15, align 8
  %72 = getelementptr inbounds %struct._scsi_task_data, ptr %71, i32 0, i32 1
  %73 = load ptr, ptr %72, align 8
  %74 = getelementptr inbounds %struct._itlq_nexus_t, ptr %73, i32 0, i32 3
  %75 = load i16, ptr %74, align 2
  %76 = zext i16 %75 to i32
  %77 = load ptr, ptr %15, align 8
  %78 = getelementptr inbounds %struct._scsi_task_data, ptr %77, i32 0, i32 1
  %79 = load ptr, ptr %78, align 8
  %80 = getelementptr inbounds %struct._itlq_nexus_t, ptr %79, i32 0, i32 9
  %81 = load ptr, ptr %8, align 8
  call void @add_srt_table_data(ptr noundef %70, i32 noundef %76, ptr noundef %80, ptr noundef %81)
  store i32 1, ptr %6, align 4
  br label %82

82:                                               ; preds = %69, %68, %54, %35
  %83 = load i32, ptr %6, align 4
  ret i32 %83
}