; Function Attrs: nounwind uwtable
define internal range(i32 0, 2) i32 @scsistat_packet(ptr noundef readonly captures(none) %0, ptr noundef %1, ptr readnone captures(none) %2, ptr noundef readonly captures(none) %3, i32 %4) #0 {
  %6 = load ptr, ptr %0, align 8
  %7 = load ptr, ptr %6, align 8
  %8 = load ptr, ptr %7, align 8
  %9 = getelementptr inbounds nuw i8, ptr %8, i64 48
  %10 = load ptr, ptr %9, align 8
  %11 = load i32, ptr %3, align 8
  %.not = icmp eq i32 %11, 4
  br i1 %.not, label %12, label %29

12:                                               ; preds = %5
  %13 = getelementptr inbounds nuw i8, ptr %3, i64 16
  %14 = load ptr, ptr %13, align 8
  %.not18 = icmp eq ptr %14, null
  br i1 %.not18, label %29, label %15

15:                                               ; preds = %12
  %16 = load i8, ptr %14, align 8
  %17 = and i8 %16, 127
  %18 = load i8, ptr %10, align 8
  %.not19 = icmp eq i8 %17, %18
  br i1 %.not19, label %19, label %29

19:                                               ; preds = %15
  %20 = getelementptr inbounds nuw i8, ptr %3, i64 8
  %21 = load ptr, ptr %20, align 8
  %.not20 = icmp eq ptr %21, null
  br i1 %.not20, label %29, label %22

22:                                               ; preds = %19
  %23 = getelementptr inbounds nuw i8, ptr %21, i64 10
  %24 = load i16, ptr %23, align 2
  %25 = icmp ugt i16 %24, 255
  br i1 %25, label %29, label %26

26:                                               ; preds = %22
  %27 = zext nneg i16 %24 to i32
  %28 = getelementptr inbounds nuw i8, ptr %21, i64 32
  tail call void @add_srt_table_data(ptr noundef nonnull %8, i32 noundef %27, ptr noundef nonnull %28, ptr noundef %1) #10
  br label %29

29:                                               ; preds = %19, %22, %12, %15, %5, %26
  %.0 = phi i32 [ 1, %26 ], [ 0, %5 ], [ 0, %15 ], [ 0, %12 ], [ 0, %22 ], [ 0, %19 ]
  ret i32 %.0
}